; Function Attrs: nounwind uwtable
define ptr @l_Lean_Grind_CommRing_Power_denoteExpr___rarg(ptr noundef %0, ptr noundef %1, ptr noundef %2) #0 {
  %4 = getelementptr inbounds nuw i8, ptr %0, i64 16
  %5 = load ptr, ptr %4, align 8, !tbaa !11
  %6 = ptrtoint ptr %5 to i64
  %7 = and i64 %6, 1
  %.not = icmp eq i64 %7, 0
  br i1 %.not, label %8, label %lean_inc.exit17

8:                                                ; preds = %3
  %.val.i = load i32, ptr %5, align 4, !tbaa !6
  %9 = icmp sgt i32 %.val.i, 0
  br i1 %9, label %10, label %12, !prof !5

10:                                               ; preds = %8
  %11 = add nuw i32 %.val.i, 1
  store i32 %11, ptr %5, align 4, !tbaa !6
  br label %lean_inc.exit17

12:                                               ; preds = %8
  %.not.i = icmp eq i32 %.val.i, 0
  br i1 %.not.i, label %lean_inc.exit17, label %13

13:                                               ; preds = %12
  tail call void @lean_inc_ref_cold(ptr noundef nonnull %5) #3
  br label %lean_inc.exit17

lean_inc.exit17:                                  ; preds = %13, %12, %10, %3
  %14 = ptrtoint ptr %1 to i64
  %15 = and i64 %14, 1
  %.not24 = icmp eq i64 %15, 0
  br i1 %.not24, label %16, label %lean_inc.exit16

16:                                               ; preds = %lean_inc.exit17
  %.val.i18 = load i32, ptr %1, align 4, !tbaa !6
  %17 = icmp sgt i32 %.val.i18, 0
  br i1 %17, label %18, label %20, !prof !5

18:                                               ; preds = %16
  %19 = add nuw i32 %.val.i18, 1
  store i32 %19, ptr %1, align 4, !tbaa !6
  br label %lean_inc.exit16

20:                                               ; preds = %16
  %.not.i19 = icmp eq i32 %.val.i18, 0
  br i1 %.not.i19, label %lean_inc.exit16, label %21

21:                                               ; preds = %20
  tail call void @lean_inc_ref_cold(ptr noundef nonnull %1) #3
  br label %lean_inc.exit16

lean_inc.exit16:                                  ; preds = %21, %20, %18, %lean_inc.exit17
  br i1 %.not, label %22, label %lean_inc.exit

22:                                               ; preds = %lean_inc.exit16
  %.val.i21 = load i32, ptr %5, align 4, !tbaa !6
  %23 = icmp sgt i32 %.val.i21, 0
  br i1 %23, label %24, label %26, !prof !5

24:                                               ; preds = %22
  %25 = add nuw i32 %.val.i21, 1
  store i32 %25, ptr %5, align 4, !tbaa !6
  br label %lean_inc.exit

26:                                               ; preds = %22
  %.not.i22 = icmp eq i32 %.val.i21, 0
  br i1 %.not.i22, label %lean_inc.exit, label %27

27:                                               ; preds = %26
  tail call void @lean_inc_ref_cold(ptr noundef nonnull %5) #3
  br label %lean_inc.exit

lean_inc.exit:                                    ; preds = %27, %26, %24, %lean_inc.exit16
  tail call void @lean_inc_heartbeat() #3
  %28 = tail call noalias ptr @mi_malloc_small(i64 noundef 56) #3
  %29 = icmp eq ptr %28, null
  br i1 %29, label %30, label %lean_alloc_closure.exit

30:                                               ; preds = %lean_inc.exit
  tail call void @lean_internal_panic_out_of_memory() #4
  unreachable

lean_alloc_closure.exit:                          ; preds = %lean_inc.exit
  %31 = getelementptr inbounds nuw i8, ptr %28, i64 4
  store i32 1, ptr %28, align 4, !tbaa !6
  store i32 -184549320, ptr %31, align 4
  %32 = getelementptr inbounds nuw i8, ptr %28, i64 8
  store ptr @l_Lean_Grind_CommRing_Power_denoteExpr___rarg___lambda__2, ptr %32, align 8, !tbaa !11
  %33 = getelementptr inbounds nuw i8, ptr %28, i64 16
  store i16 5, ptr %33, align 8, !tbaa !13
  %34 = getelementptr inbounds nuw i8, ptr %28, i64 18
  store i16 4, ptr %34, align 2, !tbaa !13
  %35 = getelementptr inbounds nuw i8, ptr %28, i64 24
  store ptr %2, ptr %35, align 8, !tbaa !11
  %36 = getelementptr inbounds nuw i8, ptr %28, i64 32
  store ptr %0, ptr %36, align 8, !tbaa !11
  %37 = getelementptr inbounds nuw i8, ptr %28, i64 40
  store ptr %5, ptr %37, align 8, !tbaa !11
  %38 = getelementptr inbounds nuw i8, ptr %28, i64 48
  store ptr %1, ptr %38, align 8, !tbaa !11
  %39 = tail call ptr @lean_apply_4(ptr noundef %5, ptr noundef nonnull inttoptr (i64 1 to ptr), ptr noundef nonnull inttoptr (i64 1 to ptr), ptr noundef %1, ptr noundef nonnull %28) #3
  ret ptr %39
}